; Function Attrs: mustprogress nofree norecurse nounwind willreturn memory(readwrite, inaccessiblemem: none) uwtable
define range(i32 0, 2) i32 @ff_thread_can_start_frame(ptr noundef readonly captures(none) %0) local_unnamed_addr #7 {
  %2 = getelementptr inbounds nuw i8, ptr %0, i64 664
  %3 = load i32, ptr %2, align 8, !tbaa !136
  %4 = and i32 %3, 1
  %.not = icmp eq i32 %4, 0
  br i1 %.not, label %17, label %5

5:                                                ; preds = %1
  %6 = getelementptr inbounds nuw i8, ptr %0, i64 16
  %7 = load ptr, ptr %6, align 8, !tbaa !50
  %8 = getelementptr inbounds nuw i8, ptr %7, i64 104
  %9 = load ptr, ptr %8, align 8, !tbaa !96
  %.not7 = icmp eq ptr %9, null
  br i1 %.not7, label %17, label %10

10:                                               ; preds = %5
  %11 = getelementptr inbounds nuw i8, ptr %0, i64 40
  %12 = load ptr, ptr %11, align 8, !tbaa !4
  %13 = getelementptr inbounds nuw i8, ptr %12, i64 32
  %14 = load ptr, ptr %13, align 8, !tbaa !27
  %15 = getelementptr inbounds nuw i8, ptr %14, i64 292
  %16 = load atomic i32, ptr %15 seq_cst, align 4
  %.not8.not = icmp eq i32 %16, 1
  br i1 %.not8.not, label %17, label %18

17:                                               ; preds = %10, %5, %1
  br label %18

18:                                               ; preds = %10, %17
  %.1 = phi i32 [ 0, %10 ], [ 1, %17 ]
  ret i32 %.1
}